target datalayout = "e-m:e-p270:32:32-p271:32:32-p272:64:64-i64:64-i128:128-f80:128-n8:16:32:64-S128"
target triple = "x86_64-pc-linux-gnu"

%struct.strbuf = type { i64, i64, ptr }
%struct.ipc_server_data = type { i32, ptr, ptr, %struct.strbuf, ptr, ptr, %union.pthread_mutex_t, %union.pthread_cond_t, ptr, i32, i32, i32, i32, i32, i32 }
%union.pthread_mutex_t = type { %struct.__pthread_mutex_s }
%struct.__pthread_mutex_s = type { i32, i32, i32, i32, i32, i16, i16, %struct.__pthread_internal_list }
%struct.__pthread_internal_list = type { ptr, ptr }
%union.pthread_cond_t = type { %struct.__pthread_cond_s }
%struct.__pthread_cond_s = type { %union.__atomic_wide_counter, %union.__atomic_wide_counter, [2 x i32], [2 x i32], i32, i32, [2 x i32] }
%union.__atomic_wide_counter = type { i64 }
%struct.ipc_accept_thread_data = type { i32, ptr, ptr, i32, i32, i64 }
%struct.ipc_worker_thread_data = type { i32, ptr, ptr, i64 }

@.str = private unnamed_addr constant [36 x i8] c"compat/simple-ipc/ipc-unix-socket.c\00", align 1
@.str.15 = private unnamed_addr constant [46 x i8] c"cannot free ipc-server while running for '%s'\00", align 1

; Function Attrs: nounwind uwtable
define dso_local void @ipc_server_free(ptr noundef %0) #0 {
  %2 = alloca ptr, align 8
  %3 = alloca ptr, align 8
  %4 = alloca i32, align 4
  %5 = alloca ptr, align 8
  store ptr %0, ptr %2, align 8, !tbaa !44
  call void @llvm.lifetime.start.p0(i64 8, ptr %3) #10
  %6 = load ptr, ptr %2, align 8, !tbaa !44
  %7 = icmp ne ptr %6, null
  br i1 %7, label %9, label %8

8:                                                ; preds = %1
  store i32 1, ptr %4, align 4
  br label %81

9:                                                ; preds = %1
  %10 = load ptr, ptr %2, align 8, !tbaa !44
  %11 = getelementptr inbounds nuw %struct.ipc_server_data, ptr %10, i32 0, i32 14
  %12 = load i32, ptr %11, align 4, !tbaa !80
  %13 = icmp ne i32 %12, 0
  br i1 %13, label %19, label %14

14:                                               ; preds = %9
  %15 = load ptr, ptr %2, align 8, !tbaa !44
  %16 = getelementptr inbounds nuw %struct.ipc_server_data, ptr %15, i32 0, i32 3
  %17 = getelementptr inbounds nuw %struct.strbuf, ptr %16, i32 0, i32 2
  %18 = load ptr, ptr %17, align 8, !tbaa !77
  call void (ptr, i32, ptr, ...) @BUG_fl(ptr noundef @.str, i32 noundef 1019, ptr noundef @.str.15, ptr noundef %18) #12
  unreachable

19:                                               ; preds = %9
  %20 = load ptr, ptr %2, align 8, !tbaa !44
  %21 = getelementptr inbounds nuw %struct.ipc_server_data, ptr %20, i32 0, i32 4
  %22 = load ptr, ptr %21, align 8, !tbaa !54
  store ptr %22, ptr %3, align 8, !tbaa !70
  %23 = load ptr, ptr %3, align 8, !tbaa !70
  %24 = icmp ne ptr %23, null
  br i1 %24, label %25, label %52

25:                                               ; preds = %19
  %26 = load ptr, ptr %3, align 8, !tbaa !70
  %27 = getelementptr inbounds nuw %struct.ipc_accept_thread_data, ptr %26, i32 0, i32 2
  %28 = load ptr, ptr %27, align 8, !tbaa !58
  call void @unix_ss_free(ptr noundef %28)
  %29 = load ptr, ptr %3, align 8, !tbaa !70
  %30 = getelementptr inbounds nuw %struct.ipc_accept_thread_data, ptr %29, i32 0, i32 3
  %31 = load i32, ptr %30, align 8, !tbaa !59
  %32 = icmp ne i32 %31, -1
  br i1 %32, label %33, label %38

33:                                               ; preds = %25
  %34 = load ptr, ptr %3, align 8, !tbaa !70
  %35 = getelementptr inbounds nuw %struct.ipc_accept_thread_data, ptr %34, i32 0, i32 3
  %36 = load i32, ptr %35, align 8, !tbaa !59
  %37 = call i32 @close(i32 noundef %36)
  br label %38

38:                                               ; preds = %33, %25
  %39 = load ptr, ptr %3, align 8, !tbaa !70
  %40 = getelementptr inbounds nuw %struct.ipc_accept_thread_data, ptr %39, i32 0, i32 4
  %41 = load i32, ptr %40, align 4, !tbaa !60
  %42 = icmp ne i32 %41, -1
  br i1 %42, label %43, label %48

43:                                               ; preds = %38
  %44 = load ptr, ptr %3, align 8, !tbaa !70
  %45 = getelementptr inbounds nuw %struct.ipc_accept_thread_data, ptr %44, i32 0, i32 4
  %46 = load i32, ptr %45, align 4, !tbaa !60
  %47 = call i32 @close(i32 noundef %46)
  br label %48

48:                                               ; preds = %43, %38
  %49 = load ptr, ptr %2, align 8, !tbaa !44
  %50 = getelementptr inbounds nuw %struct.ipc_server_data, ptr %49, i32 0, i32 4
  %51 = load ptr, ptr %50, align 8, !tbaa !54
  call void @free(ptr noundef %51) #10
  br label %52

52:                                               ; preds = %48, %19
  br label %53

53:                                               ; preds = %58, %52
  %54 = load ptr, ptr %2, align 8, !tbaa !44
  %55 = getelementptr inbounds nuw %struct.ipc_server_data, ptr %54, i32 0, i32 5
  %56 = load ptr, ptr %55, align 8, !tbaa !65
  %57 = icmp ne ptr %56, null
  br i1 %57, label %58, label %68

58:                                               ; preds = %53
  call void @llvm.lifetime.start.p0(i64 8, ptr %5) #10
  %59 = load ptr, ptr %2, align 8, !tbaa !44
  %60 = getelementptr inbounds nuw %struct.ipc_server_data, ptr %59, i32 0, i32 5
  %61 = load ptr, ptr %60, align 8, !tbaa !65
  store ptr %61, ptr %5, align 8, !tbaa !61
  %62 = load ptr, ptr %5, align 8, !tbaa !61
  %63 = getelementptr inbounds nuw %struct.ipc_worker_thread_data, ptr %62, i32 0, i32 1
  %64 = load ptr, ptr %63, align 8, !tbaa !66
  %65 = load ptr, ptr %2, align 8, !tbaa !44
  %66 = getelementptr inbounds nuw %struct.ipc_server_data, ptr %65, i32 0, i32 5
  store ptr %64, ptr %66, align 8, !tbaa !65
  %67 = load ptr, ptr %5, align 8, !tbaa !61
  call void @free(ptr noundef %67) #10
  call void @llvm.lifetime.end.p0(i64 8, ptr %5) #10
  br label %53, !llvm.loop !81

68:                                               ; preds = %53
  %69 = load ptr, ptr %2, align 8, !tbaa !44
  %70 = getelementptr inbounds nuw %struct.ipc_server_data, ptr %69, i32 0, i32 7
  %71 = call i32 @pthread_cond_destroy(ptr noundef %70) #10
  %72 = load ptr, ptr %2, align 8, !tbaa !44
  %73 = getelementptr inbounds nuw %struct.ipc_server_data, ptr %72, i32 0, i32 6
  %74 = call i32 @pthread_mutex_destroy(ptr noundef %73) #10
  %75 = load ptr, ptr %2, align 8, !tbaa !44
  %76 = getelementptr inbounds nuw %struct.ipc_server_data, ptr %75, i32 0, i32 3
  call void @strbuf_release(ptr noundef %76)
  %77 = load ptr, ptr %2, align 8, !tbaa !44
  %78 = getelementptr inbounds nuw %struct.ipc_server_data, ptr %77, i32 0, i32 8
  %79 = load ptr, ptr %78, align 8, !tbaa !53
  call void @free(ptr noundef %79) #10
  %80 = load ptr, ptr %2, align 8, !tbaa !44
  call void @free(ptr noundef %80) #10
  store i32 0, ptr %4, align 4
  br label %81

81:                                               ; preds = %68, %8
  call void @llvm.lifetime.end.p0(i64 8, ptr %3) #10
  %82 = load i32, ptr %4, align 4
  switch i32 %82, label %84 [
    i32 0, label %83
    i32 1, label %83
  ]

83:                                               ; preds = %81, %81
  ret void

84:                                               ; preds = %81
  unreachable
}