; Function Attrs: nounwind uwtable
define dso_local void @ipc_server_free(ptr noundef %0) local_unnamed_addr #0 {
  %.not = icmp eq ptr %0, null
  br i1 %.not, label %39, label %2

2:                                                ; preds = %1
  %3 = getelementptr inbounds nuw i8, ptr %0, i64 180
  %4 = load i32, ptr %3, align 4, !tbaa !72
  %.not25 = icmp eq i32 %4, 0
  br i1 %.not25, label %5, label %8

5:                                                ; preds = %2
  %6 = getelementptr inbounds nuw i8, ptr %0, i64 40
  %7 = load ptr, ptr %6, align 8, !tbaa !69
  tail call void (ptr, i32, ptr, ...) @BUG_fl(ptr noundef nonnull @.str, i32 noundef 1019, ptr noundef nonnull @.str.15, ptr noundef %7) #16
  unreachable

8:                                                ; preds = %2
  %9 = getelementptr inbounds nuw i8, ptr %0, i64 48
  %10 = load ptr, ptr %9, align 8, !tbaa !41
  %.not26 = icmp eq ptr %10, null
  br i1 %.not26, label %25, label %11

11:                                               ; preds = %8
  %12 = getelementptr inbounds nuw i8, ptr %10, i64 16
  %13 = load ptr, ptr %12, align 8, !tbaa !45
  tail call void @unix_ss_free(ptr noundef %13) #13
  %14 = getelementptr inbounds nuw i8, ptr %10, i64 24
  %15 = load i32, ptr %14, align 8, !tbaa !46
  %.not27 = icmp eq i32 %15, -1
  br i1 %.not27, label %18, label %16

16:                                               ; preds = %11
  %17 = tail call i32 @close(i32 noundef %15) #13
  br label %18

18:                                               ; preds = %16, %11
  %19 = getelementptr inbounds nuw i8, ptr %10, i64 28
  %20 = load i32, ptr %19, align 4, !tbaa !47
  %.not28 = icmp eq i32 %20, -1
  br i1 %.not28, label %23, label %21

21:                                               ; preds = %18
  %22 = tail call i32 @close(i32 noundef %20) #13
  br label %23

23:                                               ; preds = %21, %18
  %24 = load ptr, ptr %9, align 8, !tbaa !41
  tail call void @free(ptr noundef %24) #13
  br label %25

25:                                               ; preds = %23, %8
  %26 = getelementptr inbounds nuw i8, ptr %0, i64 56
  %27 = load ptr, ptr %26, align 8, !tbaa !51
  %.not2930 = icmp eq ptr %27, null
  br i1 %.not2930, label %._crit_edge, label %.lr.ph

.lr.ph:                                           ; preds = %25, %.lr.ph
  %28 = phi ptr [ %31, %.lr.ph ], [ %27, %25 ]
  %29 = getelementptr inbounds nuw i8, ptr %28, i64 8
  %30 = load ptr, ptr %29, align 8, !tbaa !52
  store ptr %30, ptr %26, align 8, !tbaa !51
  tail call void @free(ptr noundef nonnull %28) #13
  %31 = load ptr, ptr %26, align 8, !tbaa !51
  %.not29 = icmp eq ptr %31, null
  br i1 %.not29, label %._crit_edge, label %.lr.ph, !llvm.loop !73

._crit_edge:                                      ; preds = %.lr.ph, %25
  %32 = getelementptr inbounds nuw i8, ptr %0, i64 104
  %33 = tail call i32 @pthread_cond_destroy(ptr noundef nonnull %32) #13
  %34 = getelementptr inbounds nuw i8, ptr %0, i64 64
  %35 = tail call i32 @pthread_mutex_destroy(ptr noundef nonnull %34) #13
  %36 = getelementptr inbounds nuw i8, ptr %0, i64 24
  tail call void @strbuf_release(ptr noundef nonnull %36) #13
  %37 = getelementptr inbounds nuw i8, ptr %0, i64 152
  %38 = load ptr, ptr %37, align 8, !tbaa !40
  tail call void @free(ptr noundef %38) #13
  tail call void @free(ptr noundef nonnull %0) #13
  br label %39

39:                                               ; preds = %1, %._crit_edge
  ret void
}